; ModuleID = 'source-C-CXX/24/1185.cpp'
source_filename = "source-C-CXX/24/1185.cpp"
target datalayout = "e-m:e-p270:32:32-p271:32:32-p272:64:64-i64:64-f80:128-n8:16:32:64-S128"
target triple = "x86_64-pc-linux-gnu"

%"class.std::ios_base::Init" = type { i8 }
%"class.std::basic_istream" = type { i32 (...)**, i64, %"class.std::basic_ios" }
%"class.std::basic_ios" = type { %"class.std::ios_base", %"class.std::basic_ostream"*, i8, i8, %"class.std::basic_streambuf"*, %"class.std::ctype"*, %"class.std::num_put"*, %"class.std::num_get"* }
%"class.std::ios_base" = type { i32 (...)**, i64, i64, i32, i32, i32, %"struct.std::ios_base::_Callback_list"*, %"struct.std::ios_base::_Words", [8 x %"struct.std::ios_base::_Words"], i32, %"struct.std::ios_base::_Words"*, %"class.std::locale" }
%"struct.std::ios_base::_Callback_list" = type { %"struct.std::ios_base::_Callback_list"*, void (i32, %"class.std::ios_base"*, i32)*, i32, i32 }
%"struct.std::ios_base::_Words" = type { i8*, i64 }
%"class.std::locale" = type { %"class.std::locale::_Impl"* }
%"class.std::locale::_Impl" = type { i32, %"class.std::locale::facet"**, i64, %"class.std::locale::facet"**, i8** }
%"class.std::locale::facet" = type <{ i32 (...)**, i32, [4 x i8] }>
%"class.std::basic_ostream" = type { i32 (...)**, %"class.std::basic_ios" }
%"class.std::basic_streambuf" = type { i32 (...)**, i8*, i8*, i8*, i8*, i8*, i8*, %"class.std::locale" }
%"class.std::ctype" = type <{ %"class.std::locale::facet.base", [4 x i8], %struct.__locale_struct*, i8, [7 x i8], i32*, i32*, i16*, i8, [256 x i8], [256 x i8], i8, [6 x i8] }>
%"class.std::locale::facet.base" = type <{ i32 (...)**, i32 }>
%struct.__locale_struct = type { [13 x %struct.__locale_data*], i16*, i32*, i32*, [13 x i8*] }
%struct.__locale_data = type opaque
%"class.std::num_put" = type { %"class.std::locale::facet.base", [4 x i8] }
%"class.std::num_get" = type { %"class.std::locale::facet.base", [4 x i8] }

@_ZStL8__ioinit = internal global %"class.std::ios_base::Init" zeroinitializer, align 1
@__dso_handle = external hidden global i8
@_ZSt3cin = external global %"class.std::basic_istream", align 8
@_ZSt4cout = external global %"class.std::basic_ostream", align 8
@llvm.global_ctors = appending global [1 x { i32, void ()*, i8* }] [{ i32, void ()*, i8* } { i32 65535, void ()* @_GLOBAL__sub_I_1185.cpp, i8* null }]

declare void @_ZNSt8ios_base4InitC1Ev(%"class.std::ios_base::Init"* nonnull align 1 dereferenceable(1)) unnamed_addr #0

; Function Attrs: nounwind
declare void @_ZNSt8ios_base4InitD1Ev(%"class.std::ios_base::Init"* nonnull align 1 dereferenceable(1)) unnamed_addr #1

; Function Attrs: nofree nounwind
declare i32 @__cxa_atexit(void (i8*)*, i8*, i8*) local_unnamed_addr #2

; Function Attrs: mustprogress norecurse sspstrong uwtable
define dso_local i32 @main() local_unnamed_addr #3 {
  %1 = alloca i32, align 4
  %2 = alloca [50 x i32], align 16
  %3 = bitcast i32* %1 to i8*
  call void @llvm.lifetime.start.p0i8(i64 4, i8* nonnull %3) #7
  %4 = bitcast [50 x i32]* %2 to i8*
  call void @llvm.lifetime.start.p0i8(i64 200, i8* nonnull %4) #7
  call void @llvm.memset.p0i8.i64(i8* noundef nonnull align 16 dereferenceable(200) %4, i8 0, i64 200, i1 false)
  %5 = call nonnull align 8 dereferenceable(16) %"class.std::basic_istream"* @_ZNSirsERi(%"class.std::basic_istream"* nonnull align 8 dereferenceable(16) @_ZSt3cin, i32* nonnull align 4 dereferenceable(4) %1)
  %6 = getelementptr inbounds [50 x i32], [50 x i32]* %2, i64 0, i64 0
  store i32 1, i32* %6, align 16, !tbaa !5
  %7 = load i32, i32* %1, align 4, !tbaa !5
  %8 = icmp sgt i32 %7, 0
  br i1 %8, label %9, label %72

9:                                                ; preds = %0, %106
  %10 = phi i32 [ %107, %106 ], [ 1, %0 ]
  %11 = phi i32 [ %108, %106 ], [ 0, %0 ]
  %12 = icmp sgt i32 %10, 0
  br i1 %12, label %13, label %106

13:                                               ; preds = %9
  %14 = zext i32 %10 to i64
  %15 = icmp ult i32 %10, 8
  br i1 %15, label %68, label %16

16:                                               ; preds = %13
  %17 = and i64 %14, 4294967288
  %18 = add nsw i64 %17, -8
  %19 = lshr exact i64 %18, 3
  %20 = add nuw nsw i64 %19, 1
  %21 = and i64 %20, 1
  %22 = icmp eq i64 %18, 0
  br i1 %22, label %52, label %23

23:                                               ; preds = %16
  %24 = and i64 %20, 4611686018427387902
  br label %25

25:                                               ; preds = %25, %23
  %26 = phi i64 [ 0, %23 ], [ %49, %25 ]
  %27 = phi i64 [ %24, %23 ], [ %50, %25 ]
  %28 = getelementptr inbounds [50 x i32], [50 x i32]* %2, i64 0, i64 %26
  %29 = bitcast i32* %28 to <4 x i32>*
  %30 = load <4 x i32>, <4 x i32>* %29, align 16, !tbaa !5
  %31 = getelementptr inbounds i32, i32* %28, i64 4
  %32 = bitcast i32* %31 to <4 x i32>*
  %33 = load <4 x i32>, <4 x i32>* %32, align 16, !tbaa !5
  %34 = shl nsw <4 x i32> %30, <i32 1, i32 1, i32 1, i32 1>
  %35 = shl nsw <4 x i32> %33, <i32 1, i32 1, i32 1, i32 1>
  %36 = bitcast i32* %28 to <4 x i32>*
  store <4 x i32> %34, <4 x i32>* %36, align 16, !tbaa !5
  %37 = bitcast i32* %31 to <4 x i32>*
  store <4 x i32> %35, <4 x i32>* %37, align 16, !tbaa !5
  %38 = or i64 %26, 8
  %39 = getelementptr inbounds [50 x i32], [50 x i32]* %2, i64 0, i64 %38
  %40 = bitcast i32* %39 to <4 x i32>*
  %41 = load <4 x i32>, <4 x i32>* %40, align 16, !tbaa !5
  %42 = getelementptr inbounds i32, i32* %39, i64 4
  %43 = bitcast i32* %42 to <4 x i32>*
  %44 = load <4 x i32>, <4 x i32>* %43, align 16, !tbaa !5
  %45 = shl nsw <4 x i32> %41, <i32 1, i32 1, i32 1, i32 1>
  %46 = shl nsw <4 x i32> %44, <i32 1, i32 1, i32 1, i32 1>
  %47 = bitcast i32* %39 to <4 x i32>*
  store <4 x i32> %45, <4 x i32>* %47, align 16, !tbaa !5
  %48 = bitcast i32* %42 to <4 x i32>*
  store <4 x i32> %46, <4 x i32>* %48, align 16, !tbaa !5
  %49 = add nuw i64 %26, 16
  %50 = add i64 %27, -2
  %51 = icmp eq i64 %50, 0
  br i1 %51, label %52, label %25, !llvm.loop !9

52:                                               ; preds = %25, %16
  %53 = phi i64 [ 0, %16 ], [ %49, %25 ]
  %54 = icmp eq i64 %21, 0
  br i1 %54, label %66, label %55

55:                                               ; preds = %52
  %56 = getelementptr inbounds [50 x i32], [50 x i32]* %2, i64 0, i64 %53
  %57 = bitcast i32* %56 to <4 x i32>*
  %58 = load <4 x i32>, <4 x i32>* %57, align 16, !tbaa !5
  %59 = getelementptr inbounds i32, i32* %56, i64 4
  %60 = bitcast i32* %59 to <4 x i32>*
  %61 = load <4 x i32>, <4 x i32>* %60, align 16, !tbaa !5
  %62 = shl nsw <4 x i32> %58, <i32 1, i32 1, i32 1, i32 1>
  %63 = shl nsw <4 x i32> %61, <i32 1, i32 1, i32 1, i32 1>
  %64 = bitcast i32* %56 to <4 x i32>*
  store <4 x i32> %62, <4 x i32>* %64, align 16, !tbaa !5
  %65 = bitcast i32* %59 to <4 x i32>*
  store <4 x i32> %63, <4 x i32>* %65, align 16, !tbaa !5
  br label %66

66:                                               ; preds = %52, %55
  %67 = icmp eq i64 %17, %14
  br i1 %67, label %75, label %68

68:                                               ; preds = %13, %66
  %69 = phi i64 [ 0, %13 ], [ %17, %66 ]
  br label %80

70:                                               ; preds = %106
  %71 = icmp sgt i32 %107, 0
  br i1 %71, label %72, label %121

72:                                               ; preds = %0, %70
  %73 = phi i32 [ %107, %70 ], [ 1, %0 ]
  %74 = zext i32 %73 to i64
  br label %110

75:                                               ; preds = %80, %66
  br i1 %12, label %76, label %106

76:                                               ; preds = %75
  %77 = add nsw i32 %10, -1
  %78 = zext i32 %77 to i64
  %79 = zext i32 %10 to i64
  br label %87

80:                                               ; preds = %68, %80
  %81 = phi i64 [ %85, %80 ], [ %69, %68 ]
  %82 = getelementptr inbounds [50 x i32], [50 x i32]* %2, i64 0, i64 %81
  %83 = load i32, i32* %82, align 4, !tbaa !5
  %84 = shl nsw i32 %83, 1
  store i32 %84, i32* %82, align 4, !tbaa !5
  %85 = add nuw nsw i64 %81, 1
  %86 = icmp eq i64 %85, %14
  br i1 %86, label %75, label %80, !llvm.loop !12

87:                                               ; preds = %76, %103
  %88 = phi i64 [ 0, %76 ], [ %104, %103 ]
  %89 = getelementptr inbounds [50 x i32], [50 x i32]* %2, i64 0, i64 %88
  %90 = load i32, i32* %89, align 4, !tbaa !5
  %91 = icmp sgt i32 %90, 9
  br i1 %91, label %94, label %92

92:                                               ; preds = %87
  %93 = add nuw nsw i64 %88, 1
  br label %103

94:                                               ; preds = %87
  %95 = add nsw i32 %90, -10
  store i32 %95, i32* %89, align 4, !tbaa !5
  %96 = add nuw nsw i64 %88, 1
  %97 = getelementptr inbounds [50 x i32], [50 x i32]* %2, i64 0, i64 %96
  %98 = load i32, i32* %97, align 4, !tbaa !5
  %99 = add nsw i32 %98, 1
  store i32 %99, i32* %97, align 4, !tbaa !5
  %100 = icmp eq i64 %88, %78
  br i1 %100, label %101, label %103

101:                                              ; preds = %94
  %102 = add nsw i32 %10, 1
  br label %106

103:                                              ; preds = %92, %94
  %104 = phi i64 [ %93, %92 ], [ %96, %94 ]
  %105 = icmp eq i64 %104, %79
  br i1 %105, label %106, label %87, !llvm.loop !14

106:                                              ; preds = %103, %9, %75, %101
  %107 = phi i32 [ %102, %101 ], [ %10, %75 ], [ %10, %9 ], [ %10, %103 ]
  %108 = add nuw nsw i32 %11, 1
  %109 = icmp eq i32 %108, %7
  br i1 %109, label %70, label %9, !llvm.loop !15

110:                                              ; preds = %72, %110
  %111 = phi i64 [ 0, %72 ], [ %119, %110 ]
  %112 = trunc i64 %111 to i32
  %113 = xor i32 %112, -1
  %114 = add i32 %73, %113
  %115 = sext i32 %114 to i64
  %116 = getelementptr inbounds [50 x i32], [50 x i32]* %2, i64 0, i64 %115
  %117 = load i32, i32* %116, align 4, !tbaa !5
  %118 = call nonnull align 8 dereferenceable(8) %"class.std::basic_ostream"* @_ZNSolsEi(%"class.std::basic_ostream"* nonnull align 8 dereferenceable(8) @_ZSt4cout, i32 %117)
  %119 = add nuw nsw i64 %111, 1
  %120 = icmp eq i64 %119, %74
  br i1 %120, label %121, label %110, !llvm.loop !16

121:                                              ; preds = %110, %70
  call void @llvm.lifetime.end.p0i8(i64 200, i8* nonnull %4) #7
  call void @llvm.lifetime.end.p0i8(i64 4, i8* nonnull %3) #7
  ret i32 0
}

; Function Attrs: argmemonly mustprogress nofree nosync nounwind willreturn
declare void @llvm.lifetime.start.p0i8(i64 immarg, i8* nocapture) #4

; Function Attrs: argmemonly mustprogress nofree nounwind willreturn writeonly
declare void @llvm.memset.p0i8.i64(i8* nocapture writeonly, i8, i64, i1 immarg) #5

declare nonnull align 8 dereferenceable(16) %"class.std::basic_istream"* @_ZNSirsERi(%"class.std::basic_istream"* nonnull align 8 dereferenceable(16), i32* nonnull align 4 dereferenceable(4)) local_unnamed_addr #0

declare nonnull align 8 dereferenceable(8) %"class.std::basic_ostream"* @_ZNSolsEi(%"class.std::basic_ostream"* nonnull align 8 dereferenceable(8), i32) local_unnamed_addr #0

; Function Attrs: argmemonly mustprogress nofree nosync nounwind willreturn
declare void @llvm.lifetime.end.p0i8(i64 immarg, i8* nocapture) #4

; Function Attrs: sspstrong uwtable
define internal void @_GLOBAL__sub_I_1185.cpp() #6 section ".text.startup" {
  tail call void @_ZNSt8ios_base4InitC1Ev(%"class.std::ios_base::Init"* nonnull align 1 dereferenceable(1) @_ZStL8__ioinit)
  %1 = tail call i32 @__cxa_atexit(void (i8*)* bitcast (void (%"class.std::ios_base::Init"*)* @_ZNSt8ios_base4InitD1Ev to void (i8*)*), i8* getelementptr inbounds (%"class.std::ios_base::Init", %"class.std::ios_base::Init"* @_ZStL8__ioinit, i64 0, i32 0), i8* nonnull @__dso_handle) #7
  ret void
}


!llvm.module.flags = !{!0, !1, !2, !3}
!llvm.ident = !{!4}

!0 = !{i32 1, !"wchar_size", i32 4}
!1 = !{i32 7, !"PIC Level", i32 2}
!2 = !{i32 7, !"PIE Level", i32 2}
!3 = !{i32 7, !"uwtable", i32 1}
!4 = !{!"clang version 13.0.0"}
!5 = !{!6, !6, i64 0}
!6 = !{!"int", !7, i64 0}
!7 = !{!"omnipotent char", !8, i64 0}
!8 = !{!"Simple C++ TBAA"}
!9 = distinct !{!9, !10, !11}
!10 = !{!"llvm.loop.mustprogress"}
!11 = !{!"llvm.loop.isvectorized", i32 1}
!12 = distinct !{!12, !10, !13, !11}
!13 = !{!"llvm.loop.unroll.runtime.disable"}
!14 = distinct !{!14, !10}
!15 = distinct !{!15, !10}
!16 = distinct !{!16, !10}
